target datalayout = "e-m:e-p270:32:32-p271:32:32-p272:64:64-i64:64-i128:128-f80:128-n8:16:32:64-S128"
target triple = "x86_64-pc-linux-gnu"

%struct.sat_solver_t = type { i32, i32, i32, i32, %struct.Sat_Mem_t_, i32, i32, ptr, ptr, i32, i32, i32, i32, i32, i64, i64, i64, ptr, ptr, i32, i32, %struct.veci_t, ptr, i32, ptr, ptr, ptr, ptr, ptr, ptr, ptr, ptr, %struct.veci_t, %struct.veci_t, %struct.veci_t, %struct.veci_t, ptr, %struct.veci_t, i32, i32, i32, double, double, i32, i32, i32, %struct.stats_t, i32, i32, i32, i32, i32, i64, i64, i64, %struct.veci_t, ptr, i32, i32, i32, %struct.veci_t, %struct.veci_t, i32, i32, i32, ptr, ptr, i32, ptr, i32, i32, %struct.veci_t, %struct.veci_t, %struct.veci_t, ptr, ptr, i32, ptr }
%struct.Sat_Mem_t_ = type { [2 x i32], [2 x i32], [2 x i32], [2 x i32], i32, i32, i32, i32, ptr }
%struct.stats_t = type { i32, i32, i32, i64, i64, i64, i64, i64, i64, i64 }
%struct.veci_t = type { i32, i32, ptr }
%struct.Vec_Int_t_ = type { i32, i32, ptr }
%struct.Abc_Ntk_t_ = type { i32, i32, ptr, ptr, ptr, ptr, ptr, ptr, ptr, ptr, ptr, ptr, ptr, [11 x i32], i32, i32, i32, i32, ptr, i32, ptr, ptr, i32, i32, i32, double, i32, %struct.Vec_Int_t_, ptr, ptr, ptr, ptr, ptr, float, i32, ptr, ptr, ptr, ptr, ptr, ptr, ptr, ptr, ptr, ptr, ptr, ptr, ptr, ptr, ptr, ptr, ptr, ptr, ptr, ptr, ptr }
%struct.timespec = type { i64, i64 }

@stdout = external global ptr, align 8
@.str = private unnamed_addr constant [10 x i8] c"trace.cnf\00", align 1

; Function Attrs: nounwind uwtable
define internal void @Vec_IntFree(ptr noundef %0) #0 {
  %2 = alloca ptr, align 8
  store ptr %0, ptr %2, align 8
  %3 = load ptr, ptr %2, align 8
  %4 = getelementptr inbounds %struct.Vec_Int_t_, ptr %3, i32 0, i32 2
  %5 = load ptr, ptr %4, align 8
  %6 = icmp ne ptr %5, null
  br i1 %6, label %7, label %13

7:                                                ; preds = %1
  %8 = load ptr, ptr %2, align 8
  %9 = getelementptr inbounds %struct.Vec_Int_t_, ptr %8, i32 0, i32 2
  %10 = load ptr, ptr %9, align 8
  call void @free(ptr noundef %10) #6
  %11 = load ptr, ptr %2, align 8
  %12 = getelementptr inbounds %struct.Vec_Int_t_, ptr %11, i32 0, i32 2
  store ptr null, ptr %12, align 8
  br label %14

13:                                               ; preds = %1
  br label %14

14:                                               ; preds = %13, %7
  %15 = load ptr, ptr %2, align 8
  %16 = icmp ne ptr %15, null
  br i1 %16, label %17, label %19

17:                                               ; preds = %14
  %18 = load ptr, ptr %2, align 8
  call void @free(ptr noundef %18) #6
  store ptr null, ptr %2, align 8
  br label %20

19:                                               ; preds = %14
  br label %20

20:                                               ; preds = %19, %17
  ret void
}

; Function Attrs: nounwind uwtable
define internal i64 @Abc_Clock() #0 {
  %1 = alloca i64, align 8
  %2 = alloca %struct.timespec, align 8
  %3 = alloca i64, align 8
  %4 = call i32 @clock_gettime(i32 noundef 1, ptr noundef %2) #6
  %5 = icmp slt i32 %4, 0
  br i1 %5, label %6, label %7

6:                                                ; preds = %0
  store i64 -1, ptr %1, align 8
  br label %18

7:                                                ; preds = %0
  %8 = getelementptr inbounds %struct.timespec, ptr %2, i32 0, i32 0
  %9 = load i64, ptr %8, align 8
  %10 = mul nsw i64 %9, 1000000
  store i64 %10, ptr %3, align 8
  %11 = getelementptr inbounds %struct.timespec, ptr %2, i32 0, i32 1
  %12 = load i64, ptr %11, align 8
  %13 = mul nsw i64 %12, 1000000
  %14 = sdiv i64 %13, 1000000000
  %15 = load i64, ptr %3, align 8
  %16 = add nsw i64 %15, %14
  store i64 %16, ptr %3, align 8
  %17 = load i64, ptr %3, align 8
  store i64 %17, ptr %1, align 8
  br label %18

18:                                               ; preds = %7, %6
  %19 = load i64, ptr %1, align 8
  ret i64 %19
}

; Function Attrs: nounwind uwtable
define i32 @Abc_NtkMiterSat(ptr noundef %0, i64 noundef %1, i64 noundef %2, i32 noundef %3, ptr noundef %4, ptr noundef %5) #0 {
  %7 = alloca i32, align 4
  %8 = alloca ptr, align 8
  %9 = alloca i64, align 8
  %10 = alloca i64, align 8
  %11 = alloca i32, align 4
  %12 = alloca ptr, align 8
  %13 = alloca ptr, align 8
  %14 = alloca ptr, align 8
  %15 = alloca i8, align 1
  %16 = alloca i32, align 4
  %17 = alloca i64, align 8
  %18 = alloca ptr, align 8
  store ptr %0, ptr %8, align 8
  store i64 %1, ptr %9, align 8
  store i64 %2, ptr %10, align 8
  store i32 %3, ptr %11, align 4
  store ptr %4, ptr %12, align 8
  store ptr %5, ptr %13, align 8
  store i32 0, ptr %16, align 4
  %19 = load ptr, ptr %12, align 8
  %20 = icmp ne ptr %19, null
  br i1 %20, label %21, label %23

21:                                               ; preds = %6
  %22 = load ptr, ptr %12, align 8
  store i64 0, ptr %22, align 8
  br label %23

23:                                               ; preds = %21, %6
  %24 = load ptr, ptr %13, align 8
  %25 = icmp ne ptr %24, null
  br i1 %25, label %26, label %28

26:                                               ; preds = %23
  %27 = load ptr, ptr %13, align 8
  store i64 0, ptr %27, align 8
  br label %28

28:                                               ; preds = %26, %23
  %29 = call i64 @Abc_Clock()
  store i64 %29, ptr %17, align 8
  %30 = load ptr, ptr %8, align 8
  %31 = call ptr @Abc_NtkMiterSatCreate(ptr noundef %30, i32 noundef 0)
  store ptr %31, ptr %14, align 8
  %32 = load ptr, ptr %14, align 8
  %33 = icmp eq ptr %32, null
  br i1 %33, label %34, label %35

34:                                               ; preds = %28
  store i32 1, ptr %7, align 4
  br label %126

35:                                               ; preds = %28
  %36 = call i64 @Abc_Clock()
  store i64 %36, ptr %17, align 8
  %37 = load ptr, ptr %14, align 8
  %38 = call i32 @sat_solver_simplify(ptr noundef %37)
  %39 = trunc i32 %38 to i8
  store i8 %39, ptr %15, align 1
  %40 = load i8, ptr %15, align 1
  %41 = sext i8 %40 to i32
  %42 = icmp eq i32 %41, 0
  br i1 %42, label %43, label %45

43:                                               ; preds = %35
  %44 = load ptr, ptr %14, align 8
  call void @sat_solver_delete(ptr noundef %44)
  store i32 1, ptr %7, align 4
  br label %126

45:                                               ; preds = %35
  %46 = call i64 @Abc_Clock()
  store i64 %46, ptr %17, align 8
  %47 = load i32, ptr %11, align 4
  %48 = icmp ne i32 %47, 0
  br i1 %48, label %49, label %52

49:                                               ; preds = %45
  %50 = load ptr, ptr %14, align 8
  %51 = getelementptr inbounds %struct.sat_solver_t, ptr %50, i32 0, i32 43
  store i32 1, ptr %51, align 8
  br label %52

52:                                               ; preds = %49, %45
  %53 = load ptr, ptr %14, align 8
  %54 = load i64, ptr %9, align 8
  %55 = load i64, ptr %10, align 8
  %56 = call i32 @sat_solver_solve(ptr noundef %53, ptr noundef null, ptr noundef null, i64 noundef %54, i64 noundef %55, i64 noundef 0, i64 noundef 0)
  %57 = trunc i32 %56 to i8
  store i8 %57, ptr %15, align 1
  %58 = load i8, ptr %15, align 1
  %59 = sext i8 %58 to i32
  %60 = icmp eq i32 %59, 0
  br i1 %60, label %61, label %62

61:                                               ; preds = %52
  store i32 -1, ptr %16, align 4
  br label %75

62:                                               ; preds = %52
  %63 = load i8, ptr %15, align 1
  %64 = sext i8 %63 to i32
  %65 = icmp eq i32 %64, 1
  br i1 %65, label %66, label %67

66:                                               ; preds = %62
  store i32 0, ptr %16, align 4
  br label %74

67:                                               ; preds = %62
  %68 = load i8, ptr %15, align 1
  %69 = sext i8 %68 to i32
  %70 = icmp eq i32 %69, -1
  br i1 %70, label %71, label %72

71:                                               ; preds = %67
  store i32 1, ptr %16, align 4
  br label %73

72:                                               ; preds = %67
  br label %73

73:                                               ; preds = %72, %71
  br label %74

74:                                               ; preds = %73, %66
  br label %75

75:                                               ; preds = %74, %61
  %76 = load i8, ptr %15, align 1
  %77 = sext i8 %76 to i32
  %78 = icmp eq i32 %77, 1
  br i1 %78, label %79, label %93

79:                                               ; preds = %75
  %80 = load ptr, ptr %8, align 8
  %81 = call ptr @Abc_NtkGetCiSatVarNums(ptr noundef %80)
  store ptr %81, ptr %18, align 8
  %82 = load ptr, ptr %14, align 8
  %83 = load ptr, ptr %18, align 8
  %84 = getelementptr inbounds %struct.Vec_Int_t_, ptr %83, i32 0, i32 2
  %85 = load ptr, ptr %84, align 8
  %86 = load ptr, ptr %18, align 8
  %87 = getelementptr inbounds %struct.Vec_Int_t_, ptr %86, i32 0, i32 1
  %88 = load i32, ptr %87, align 4
  %89 = call ptr @Sat_SolverGetModel(ptr noundef %82, ptr noundef %85, i32 noundef %88)
  %90 = load ptr, ptr %8, align 8
  %91 = getelementptr inbounds %struct.Abc_Ntk_t_, ptr %90, i32 0, i32 37
  store ptr %89, ptr %91, align 8
  %92 = load ptr, ptr %18, align 8
  call void @Vec_IntFree(ptr noundef %92)
  br label %93

93:                                               ; preds = %79, %75
  %94 = load i32, ptr %11, align 4
  %95 = icmp ne i32 %94, 0
  br i1 %95, label %96, label %99

96:                                               ; preds = %93
  %97 = load ptr, ptr @stdout, align 8
  %98 = load ptr, ptr %14, align 8
  call void @Sat_SolverPrintStats(ptr noundef %97, ptr noundef %98)
  br label %99

99:                                               ; preds = %96, %93
  %100 = load ptr, ptr %12, align 8
  %101 = icmp ne ptr %100, null
  br i1 %101, label %102, label %110

102:                                              ; preds = %99
  %103 = load ptr, ptr %14, align 8
  %104 = getelementptr inbounds %struct.sat_solver_t, ptr %103, i32 0, i32 46
  %105 = getelementptr inbounds %struct.stats_t, ptr %104, i32 0, i32 6
  %106 = load i64, ptr %105, align 8
  %107 = trunc i64 %106 to i32
  %108 = sext i32 %107 to i64
  %109 = load ptr, ptr %12, align 8
  store i64 %108, ptr %109, align 8
  br label %110

110:                                              ; preds = %102, %99
  %111 = load ptr, ptr %13, align 8
  %112 = icmp ne ptr %111, null
  br i1 %112, label %113, label %121

113:                                              ; preds = %110
  %114 = load ptr, ptr %14, align 8
  %115 = getelementptr inbounds %struct.sat_solver_t, ptr %114, i32 0, i32 46
  %116 = getelementptr inbounds %struct.stats_t, ptr %115, i32 0, i32 5
  %117 = load i64, ptr %116, align 8
  %118 = trunc i64 %117 to i32
  %119 = sext i32 %118 to i64
  %120 = load ptr, ptr %13, align 8
  store i64 %119, ptr %120, align 8
  br label %121

121:                                              ; preds = %113, %110
  %122 = load ptr, ptr %14, align 8
  call void @sat_solver_store_write(ptr noundef %122, ptr noundef @.str)
  %123 = load ptr, ptr %14, align 8
  call void @sat_solver_store_free(ptr noundef %123)
  %124 = load ptr, ptr %14, align 8
  call void @sat_solver_delete(ptr noundef %124)
  %125 = load i32, ptr %16, align 4
  store i32 %125, ptr %7, align 4
  br label %126

126:                                              ; preds = %121, %43, %34
  %127 = load i32, ptr %7, align 4
  ret i32 %127
}