; Function Attrs: nounwind uwtable
define range(i32 -1, 2) i32 @Abc_NtkMiterSat(ptr noundef %0, i64 noundef %1, i64 noundef %2, i32 noundef %3, ptr noundef writeonly %4, ptr noundef writeonly %5) local_unnamed_addr #0 {
  %7 = alloca %struct.timespec, align 8
  %8 = alloca %struct.timespec, align 8
  %9 = alloca %struct.timespec, align 8
  %.not = icmp eq ptr %4, null
  br i1 %.not, label %11, label %10

10:                                               ; preds = %6
  store i64 0, ptr %4, align 8
  br label %11

11:                                               ; preds = %10, %6
  %.not42 = icmp eq ptr %5, null
  br i1 %.not42, label %Abc_Clock.exit, label %12

12:                                               ; preds = %11
  store i64 0, ptr %5, align 8
  br label %Abc_Clock.exit

Abc_Clock.exit:                                   ; preds = %12, %11
  call void @llvm.lifetime.start.p0(i64 16, ptr nonnull %9)
  %13 = call i32 @clock_gettime(i32 noundef 1, ptr noundef nonnull %9) #11
  call void @llvm.lifetime.end.p0(i64 16, ptr nonnull %9)
  %14 = call ptr @Abc_NtkMiterSatCreate(ptr noundef %0, i32 noundef 0)
  %15 = icmp eq ptr %14, null
  br i1 %15, label %48, label %Abc_Clock.exit49

Abc_Clock.exit49:                                 ; preds = %Abc_Clock.exit
  call void @llvm.lifetime.start.p0(i64 16, ptr nonnull %8)
  %16 = call i32 @clock_gettime(i32 noundef 1, ptr noundef nonnull %8) #11
  call void @llvm.lifetime.end.p0(i64 16, ptr nonnull %8)
  %17 = call i32 @sat_solver_simplify(ptr noundef nonnull %14) #11
  %sext.mask = and i32 %17, 255
  %18 = icmp eq i32 %sext.mask, 0
  br i1 %18, label %.sink.split, label %Abc_Clock.exit51

Abc_Clock.exit51:                                 ; preds = %Abc_Clock.exit49
  call void @llvm.lifetime.start.p0(i64 16, ptr nonnull %7)
  %19 = call i32 @clock_gettime(i32 noundef 1, ptr noundef nonnull %7) #11
  call void @llvm.lifetime.end.p0(i64 16, ptr nonnull %7)
  %.not43 = icmp eq i32 %3, 0
  br i1 %.not43, label %22, label %20

20:                                               ; preds = %Abc_Clock.exit51
  %21 = getelementptr inbounds nuw i8, ptr %14, i64 384
  store i32 1, ptr %21, align 8
  br label %22

22:                                               ; preds = %20, %Abc_Clock.exit51
  %23 = call i32 @sat_solver_solve(ptr noundef nonnull %14, ptr noundef null, ptr noundef null, i64 noundef %1, i64 noundef %2, i64 noundef 0, i64 noundef 0) #11
  %sext = shl i32 %23, 24
  %switch.selectcmp = icmp eq i32 %sext, -16777216
  %switch.select = zext i1 %switch.selectcmp to i32
  %switch.selectcmp46 = icmp eq i32 %sext, 0
  %switch.select47 = select i1 %switch.selectcmp46, i32 -1, i32 %switch.select
  %24 = icmp eq i32 %sext, 16777216
  br i1 %24, label %25, label %34

25:                                               ; preds = %22
  %26 = call ptr @Abc_NtkGetCiSatVarNums(ptr noundef %0)
  %27 = getelementptr inbounds nuw i8, ptr %26, i64 8
  %28 = load ptr, ptr %27, align 8
  %29 = getelementptr inbounds nuw i8, ptr %26, i64 4
  %30 = load i32, ptr %29, align 4
  %31 = call ptr @Sat_SolverGetModel(ptr noundef nonnull %14, ptr noundef %28, i32 noundef %30) #11
  %32 = getelementptr inbounds nuw i8, ptr %0, i64 304
  store ptr %31, ptr %32, align 8
  %.not.i = icmp eq ptr %28, null
  br i1 %.not.i, label %Vec_IntFree.exit, label %33

33:                                               ; preds = %25
  call void @free(ptr noundef nonnull %28) #11
  br label %Vec_IntFree.exit

Vec_IntFree.exit:                                 ; preds = %25, %33
  call void @free(ptr noundef nonnull %26) #11
  br label %34

34:                                               ; preds = %Vec_IntFree.exit, %22
  br i1 %.not43, label %37, label %35

35:                                               ; preds = %34
  %36 = load ptr, ptr @stdout, align 8
  call void @Sat_SolverPrintStats(ptr noundef %36, ptr noundef nonnull %14) #11
  br label %37

37:                                               ; preds = %35, %34
  br i1 %.not, label %42, label %38

38:                                               ; preds = %37
  %39 = getelementptr inbounds nuw i8, ptr %14, i64 440
  %40 = load i64, ptr %39, align 8
  %sext44 = shl i64 %40, 32
  %41 = ashr exact i64 %sext44, 32
  store i64 %41, ptr %4, align 8
  br label %42

42:                                               ; preds = %38, %37
  br i1 %.not42, label %47, label %43

43:                                               ; preds = %42
  %44 = getelementptr inbounds nuw i8, ptr %14, i64 432
  %45 = load i64, ptr %44, align 8
  %sext45 = shl i64 %45, 32
  %46 = ashr exact i64 %sext45, 32
  store i64 %46, ptr %5, align 8
  br label %47

47:                                               ; preds = %43, %42
  call void @sat_solver_store_write(ptr noundef nonnull %14, ptr noundef nonnull @.str) #11
  call void @sat_solver_store_free(ptr noundef nonnull %14) #11
  br label %.sink.split

.sink.split:                                      ; preds = %Abc_Clock.exit49, %47
  %.0.ph = phi i32 [ %switch.select47, %47 ], [ 1, %Abc_Clock.exit49 ]
  call void @sat_solver_delete(ptr noundef nonnull %14) #11
  br label %48

48:                                               ; preds = %.sink.split, %Abc_Clock.exit
  %.0 = phi i32 [ 1, %Abc_Clock.exit ], [ %.0.ph, %.sink.split ]
  ret i32 %.0
}